; Function Attrs: cold mustprogress nofree noreturn nounwind uwtable
define internal fastcc void @_ZL5errorIJEEvPKcDpT_(ptr noundef readonly captures(none) %0) unnamed_addr #1 {
  %2 = load ptr, ptr @stderr, align 8, !tbaa !194
  %3 = load ptr, ptr @filename, align 8, !tbaa !4
  %4 = load i32, ptr @line, align 4, !tbaa !22
  %5 = tail call i32 (ptr, ptr, ...) @fprintf(ptr noundef %2, ptr noundef nonnull @.str.82, ptr noundef %3, i32 noundef %4) #33
  %6 = load ptr, ptr @stderr, align 8, !tbaa !194
  %7 = tail call i32 (ptr, ptr, ...) @fprintf(ptr noundef %6, ptr noundef %0) #33
  tail call void @exit(i32 noundef 1) #34
  unreachable
}